target datalayout = "e-m:e-p270:32:32-p271:32:32-p272:64:64-i64:64-i128:128-f80:128-n8:16:32:64-S128"
target triple = "x86_64-pc-linux-gnu"

%"class.sat::literal" = type { i32 }
%class.rational = type { %class.mpq }
%class.mpq = type { %class.mpz, %class.mpz }
%class.mpz = type { i32, i8, ptr }
%"struct.smt::theory_pb::arg_t" = type { %class.vector, %class.rational }
%class.vector = type { ptr }
%class.obj_ref.81 = type { ptr, ptr }
%"struct.smt::theory_pb::ineq" = type <{ ptr, %"class.sat::literal", i8, [3 x i8], [2 x %"struct.smt::theory_pb::arg_t"], %class._scoped_numeral, i32, [4 x i8], %class._scoped_numeral, i32, [4 x i8], %class._scoped_numeral, %class._scoped_numeral, i32, [4 x i8] }>
%class._scoped_numeral = type { ptr, %class.mpz }

; Function Attrs: mustprogress nounwind uwtable
define linkonce_odr hidden noundef zeroext i1 @_ZNK3sat7literal4signEv(ptr noundef nonnull align 4 dereferenceable(4) %0) #4 comdat align 2 {
  %2 = alloca ptr, align 8
  store ptr %0, ptr %2, align 8, !tbaa !3
  %3 = load ptr, ptr %2, align 8
  %4 = getelementptr inbounds nuw %"class.sat::literal", ptr %3, i32 0, i32 0
  %5 = load i32, ptr %4, align 4, !tbaa !14
  %6 = zext i32 %5 to i64
  %7 = and i64 %6, 1
  %8 = icmp ne i64 %7, 0
  ret i1 %8
}

; Function Attrs: mustprogress nounwind uwtable
define linkonce_odr hidden noundef nonnull align 8 dereferenceable(40) ptr @_ZN3smt9theory_pb4ineq4argsEv(ptr noundef nonnull align 8 dereferenceable(212) %0) #4 comdat align 2 {
  %2 = alloca ptr, align 8
  store ptr %0, ptr %2, align 8, !tbaa !597
  %3 = load ptr, ptr %2, align 8
  %4 = getelementptr inbounds nuw %"struct.smt::theory_pb::ineq", ptr %3, i32 0, i32 4
  %5 = getelementptr inbounds nuw %"struct.smt::theory_pb::ineq", ptr %3, i32 0, i32 1
  %6 = call noundef zeroext i1 @_ZNK3sat7literal4signEv(ptr noundef nonnull align 4 dereferenceable(4) %5)
  %7 = zext i1 %6 to i64
  %8 = getelementptr inbounds nuw [2 x %"struct.smt::theory_pb::arg_t"], ptr %4, i64 0, i64 %7
  ret ptr %8
}

; Function Attrs: mustprogress uwtable
define hidden void @_ZN3smt9theory_pb4ineq7to_exprERNS_7contextER11ast_manager(ptr dead_on_unwind noalias writable sret(%class.obj_ref.81) align 8 %0, ptr noundef nonnull align 8 dereferenceable(212) %1, ptr noundef nonnull align 8 dereferenceable(10544) %2, ptr noundef nonnull align 8 dereferenceable(976) %3) #6 align 2 {
  %5 = alloca ptr, align 8
  %6 = alloca ptr, align 8
  %7 = alloca ptr, align 8
  %8 = alloca ptr, align 8
  store ptr %0, ptr %5, align 8
  store ptr %1, ptr %6, align 8, !tbaa !597
  store ptr %2, ptr %7, align 8, !tbaa !69
  store ptr %3, ptr %8, align 8, !tbaa !78
  %9 = load ptr, ptr %6, align 8
  %10 = call noundef nonnull align 8 dereferenceable(40) ptr @_ZN3smt9theory_pb4ineq4argsEv(ptr noundef nonnull align 8 dereferenceable(212) %9)
  %11 = getelementptr inbounds nuw %"struct.smt::theory_pb::ineq", ptr %9, i32 0, i32 2
  %12 = load i8, ptr %11, align 4, !tbaa !607, !range !12, !noundef !13
  %13 = trunc i8 %12 to i1
  %14 = load ptr, ptr %7, align 8, !tbaa !69
  %15 = load ptr, ptr %8, align 8, !tbaa !78
  call void @_ZN3smt9theory_pb5arg_t7to_exprEbRNS_7contextER11ast_manager(ptr dead_on_unwind writable sret(%class.obj_ref.81) align 8 %0, ptr noundef nonnull align 8 dereferenceable(40) %10, i1 noundef zeroext %13, ptr noundef nonnull align 8 dereferenceable(10544) %14, ptr noundef nonnull align 8 dereferenceable(976) %15)
  ret void
}