; Function Attrs: mustprogress uwtable
define hidden void @_ZN3smt9theory_pb4ineq7to_exprERNS_7contextER11ast_manager(ptr dead_on_unwind noalias writable sret(%class.obj_ref.81) align 8 initializes((0, 16)) %0, ptr noundef nonnull align 8 dereferenceable(212) %1, ptr noundef nonnull align 8 dereferenceable(10544) %2, ptr noundef nonnull align 8 dereferenceable(976) %3) local_unnamed_addr #4 align 2 {
  %5 = getelementptr inbounds nuw i8, ptr %1, i64 16
  %6 = getelementptr inbounds nuw i8, ptr %1, i64 8
  %7 = load i32, ptr %6, align 8, !tbaa !11
  %8 = and i32 %7, 1
  %9 = zext nneg i32 %8 to i64
  %10 = getelementptr inbounds nuw [2 x %"struct.smt::theory_pb::arg_t"], ptr %5, i64 0, i64 %9
  %11 = getelementptr inbounds nuw i8, ptr %1, i64 12
  %12 = load i8, ptr %11, align 4, !tbaa !647, !range !648, !noundef !649
  %13 = trunc nuw i8 %12 to i1
  tail call void @_ZN3smt9theory_pb5arg_t7to_exprEbRNS_7contextER11ast_manager(ptr dead_on_unwind writable sret(%class.obj_ref.81) align 8 %0, ptr noundef nonnull align 8 dereferenceable(40) %10, i1 noundef zeroext %13, ptr noundef nonnull align 8 dereferenceable(10544) %2, ptr noundef nonnull align 8 dereferenceable(976) %3)
  ret void
}